target datalayout = "e-m:e-p270:32:32-p271:32:32-p272:64:64-i64:64-i128:128-f80:128-n8:16:32:64-S128"
target triple = "x86_64-pc-linux-gnu"

%"class.cvc5::internal::NodeTemplate.600" = type { ptr }

; Function Attrs: mustprogress nounwind uwtable
define linkonce_odr hidden void @_ZN4cvc58internal12NodeTemplateILb0EED2Ev(ptr noundef nonnull align 8 dereferenceable(8) %0) unnamed_addr #5 comdat align 2 {
  %2 = alloca ptr, align 8
  store ptr %0, ptr %2, align 8, !tbaa !721
  ret void
}

; Function Attrs: mustprogress nounwind uwtable
define linkonce_odr hidden void @_ZN4cvc58internal12NodeTemplateILb0EEC2ERKS2_(ptr noundef nonnull align 8 dereferenceable(8) %0, ptr noundef nonnull align 8 dereferenceable(8) %1) unnamed_addr #5 comdat align 2 {
  %3 = alloca ptr, align 8
  %4 = alloca ptr, align 8
  store ptr %0, ptr %3, align 8, !tbaa !721
  store ptr %1, ptr %4, align 8, !tbaa !721
  %5 = load ptr, ptr %3, align 8
  %6 = load ptr, ptr %4, align 8, !tbaa !721
  %7 = getelementptr inbounds nuw %"class.cvc5::internal::NodeTemplate.600", ptr %6, i32 0, i32 0
  %8 = load ptr, ptr %7, align 8, !tbaa !729
  %9 = getelementptr inbounds nuw %"class.cvc5::internal::NodeTemplate.600", ptr %5, i32 0, i32 0
  store ptr %8, ptr %9, align 8, !tbaa !729
  ret void
}

; Function Attrs: mustprogress uwtable
define hidden void @_ZN4cvc58internal6theory5arith6linear18TheoryArithPrivate13preNotifyFactENS0_12NodeTemplateILb0EEE(ptr noundef nonnull align 8 dereferenceable(9440) %0, ptr noundef %1) #4 align 2 personality ptr @__gxx_personality_v0 {
  %3 = alloca ptr, align 8
  %4 = alloca ptr, align 8
  %5 = alloca ptr, align 8
  %6 = alloca %"class.cvc5::internal::NodeTemplate.600", align 8
  %7 = alloca ptr, align 8
  %8 = alloca i32, align 4
  %9 = alloca i8, align 1
  store ptr %0, ptr %3, align 8, !tbaa !3
  store ptr %1, ptr %4, align 8, !tbaa !721
  %10 = load ptr, ptr %3, align 8
  call void @llvm.lifetime.start.p0(i64 8, ptr %5) #3
  call void @_ZN4cvc58internal12NodeTemplateILb0EEC2ERKS2_(ptr noundef nonnull align 8 dereferenceable(8) %6, ptr noundef nonnull align 8 dereferenceable(8) %1)
  %11 = invoke noundef ptr @_ZN4cvc58internal6theory5arith6linear18TheoryArithPrivate23constraintFromFactQueueENS0_12NodeTemplateILb0EEE(ptr noundef nonnull align 8 dereferenceable(9440) %10, ptr noundef %6)
          to label %12 unwind label %19

12:                                               ; preds = %2
  call void @_ZN4cvc58internal12NodeTemplateILb0EED2Ev(ptr noundef nonnull align 8 dereferenceable(8) %6) #3
  store ptr %11, ptr %5, align 8, !tbaa !736
  %13 = load ptr, ptr %5, align 8, !tbaa !736
  %14 = icmp ne ptr %13, null
  br i1 %14, label %15, label %23

15:                                               ; preds = %12
  call void @llvm.lifetime.start.p0(i64 1, ptr %9) #3
  %16 = load ptr, ptr %5, align 8, !tbaa !736
  %17 = call noundef zeroext i1 @_ZN4cvc58internal6theory5arith6linear18TheoryArithPrivate14assertionCasesEPNS3_10ConstraintE(ptr noundef nonnull align 8 dereferenceable(9440) %10, ptr noundef %16)
  %18 = zext i1 %17 to i8
  store i8 %18, ptr %9, align 1, !tbaa !573
  call void @llvm.lifetime.end.p0(i64 1, ptr %9) #3
  br label %23

19:                                               ; preds = %2
  %20 = landingpad { ptr, i32 }
          cleanup
  %21 = extractvalue { ptr, i32 } %20, 0
  store ptr %21, ptr %7, align 8
  %22 = extractvalue { ptr, i32 } %20, 1
  store i32 %22, ptr %8, align 4
  call void @_ZN4cvc58internal12NodeTemplateILb0EED2Ev(ptr noundef nonnull align 8 dereferenceable(8) %6) #3
  call void @llvm.lifetime.end.p0(i64 8, ptr %5) #3
  br label %24

23:                                               ; preds = %15, %12
  call void @llvm.lifetime.end.p0(i64 8, ptr %5) #3
  ret void

24:                                               ; preds = %19
  %25 = load ptr, ptr %7, align 8
  %26 = load i32, ptr %8, align 4
  %27 = insertvalue { ptr, i32 } poison, ptr %25, 0
  %28 = insertvalue { ptr, i32 } %27, i32 %26, 1
  resume { ptr, i32 } %28
}