; Function Attrs: mustprogress uwtable
define hidden void @_ZN4cvc58internal6theory5arith6linear18TheoryArithPrivate13preNotifyFactENS0_12NodeTemplateILb0EEE(ptr noundef nonnull align 8 dereferenceable(9440) %0, ptr noundef readonly captures(none) %1) local_unnamed_addr #3 align 2 personality ptr @__gxx_personality_v0 {
  %3 = alloca %"class.cvc5::internal::NodeTemplate.600", align 8
  %4 = load ptr, ptr %1, align 8, !tbaa !738
  store ptr %4, ptr %3, align 8, !tbaa !738
  %5 = call noundef ptr @_ZN4cvc58internal6theory5arith6linear18TheoryArithPrivate23constraintFromFactQueueENS0_12NodeTemplateILb0EEE(ptr noundef nonnull align 8 dereferenceable(9440) %0, ptr noundef nonnull %3)
  %.not = icmp eq ptr %5, null
  br i1 %.not, label %8, label %6

6:                                                ; preds = %2
  %7 = tail call noundef zeroext i1 @_ZN4cvc58internal6theory5arith6linear18TheoryArithPrivate14assertionCasesEPNS3_10ConstraintE(ptr noundef nonnull align 8 dereferenceable(9440) %0, ptr noundef nonnull %5)
  br label %8

8:                                                ; preds = %6, %2
  ret void
}